target datalayout = "e-m:e-p270:32:32-p271:32:32-p272:64:64-i64:64-i128:128-f80:128-n8:16:32:64-S128"
target triple = "x86_64-pc-linux-gnu"

%struct.anon = type { i64, ptr }
%struct.AVClass = type { ptr, ptr, ptr, i32, i32, i32, i32, ptr, ptr, ptr, ptr, i32 }
%struct.AVOption = type { ptr, ptr, i32, i32, %union.anon, double, double, i32, ptr }
%union.anon = type { i64 }

@.str.3 = private unnamed_addr constant [35 x i8] c"The \22%s\22 option is deprecated: %s\0A\00", align 1
@.str.24 = private unnamed_addr constant [82 x i8] c"Tried to set option '%s' of type %s from value of type %s, this is not supported\0A\00", align 1
@.str.25 = private unnamed_addr constant [96 x i8] c"Option '%s' is not a runtime option and so cannot be set after the object has been initialized\0A\00", align 1

; Function Attrs: nounwind uwtable
define internal i32 @opt_set_init(ptr noundef %0, ptr noundef %1, i32 noundef %2, i32 noundef %3, ptr noundef %4, ptr noundef %5, ptr noundef %6) #0 {
  %8 = alloca i32, align 4
  %9 = alloca ptr, align 8
  %10 = alloca ptr, align 8
  %11 = alloca i32, align 4
  %12 = alloca i32, align 4
  %13 = alloca ptr, align 8
  %14 = alloca ptr, align 8
  %15 = alloca ptr, align 8
  %16 = alloca ptr, align 8
  %17 = alloca ptr, align 8
  %18 = alloca i32, align 4
  %19 = alloca ptr, align 8
  %20 = alloca ptr, align 8
  store ptr %0, ptr %9, align 8, !tbaa !4
  store ptr %1, ptr %10, align 8, !tbaa !19
  store i32 %2, ptr %11, align 4, !tbaa !20
  store i32 %3, ptr %12, align 4, !tbaa !20
  store ptr %4, ptr %13, align 8, !tbaa !22
  store ptr %5, ptr %14, align 8, !tbaa !24
  store ptr %6, ptr %15, align 8, !tbaa !22
  call void @llvm.lifetime.start.p0(i64 8, ptr %16) #11
  call void @llvm.lifetime.start.p0(i64 8, ptr %17) #11
  %21 = load ptr, ptr %9, align 8, !tbaa !4
  %22 = load ptr, ptr %10, align 8, !tbaa !19
  %23 = load i32, ptr %11, align 4, !tbaa !20
  %24 = call ptr @av_opt_find2(ptr noundef %21, ptr noundef %22, ptr noundef null, i32 noundef 0, i32 noundef %23, ptr noundef %17)
  store ptr %24, ptr %16, align 8, !tbaa !8
  %25 = load ptr, ptr %16, align 8, !tbaa !8
  %26 = icmp ne ptr %25, null
  br i1 %26, label %27, label %30

27:                                               ; preds = %7
  %28 = load ptr, ptr %17, align 8, !tbaa !4
  %29 = icmp ne ptr %28, null
  br i1 %29, label %31, label %30

30:                                               ; preds = %27, %7
  store i32 -1414549496, ptr %8, align 4
  store i32 1, ptr %18, align 4
  br label %159

31:                                               ; preds = %27
  %32 = load ptr, ptr %16, align 8, !tbaa !8
  %33 = getelementptr inbounds nuw %struct.AVOption, ptr %32, i32 0, i32 7
  %34 = load i32, ptr %33, align 8, !tbaa !26
  %35 = and i32 %34, 128
  %36 = icmp ne i32 %35, 0
  br i1 %36, label %37, label %38

37:                                               ; preds = %31
  store i32 -22, ptr %8, align 4
  store i32 1, ptr %18, align 4
  br label %159

38:                                               ; preds = %31
  %39 = load i32, ptr %12, align 4, !tbaa !20
  %40 = icmp ne i32 %39, 0
  br i1 %40, label %41, label %64

41:                                               ; preds = %38
  %42 = load ptr, ptr %16, align 8, !tbaa !8
  %43 = getelementptr inbounds nuw %struct.AVOption, ptr %42, i32 0, i32 3
  %44 = load i32, ptr %43, align 4, !tbaa !21
  %45 = load i32, ptr %12, align 4, !tbaa !20
  %46 = icmp ne i32 %44, %45
  br i1 %46, label %47, label %64

47:                                               ; preds = %41
  %48 = load ptr, ptr %9, align 8, !tbaa !4
  %49 = load ptr, ptr %16, align 8, !tbaa !8
  %50 = getelementptr inbounds nuw %struct.AVOption, ptr %49, i32 0, i32 0
  %51 = load ptr, ptr %50, align 8, !tbaa !16
  %52 = load ptr, ptr %16, align 8, !tbaa !8
  %53 = getelementptr inbounds nuw %struct.AVOption, ptr %52, i32 0, i32 3
  %54 = load i32, ptr %53, align 4, !tbaa !21
  %55 = zext i32 %54 to i64
  %56 = getelementptr inbounds nuw [21 x %struct.anon], ptr @opt_type_desc, i64 0, i64 %55
  %57 = getelementptr inbounds nuw %struct.anon, ptr %56, i32 0, i32 1
  %58 = load ptr, ptr %57, align 8, !tbaa !27
  %59 = load i32, ptr %12, align 4, !tbaa !20
  %60 = sext i32 %59 to i64
  %61 = getelementptr inbounds [21 x %struct.anon], ptr @opt_type_desc, i64 0, i64 %60
  %62 = getelementptr inbounds nuw %struct.anon, ptr %61, i32 0, i32 1
  %63 = load ptr, ptr %62, align 8, !tbaa !27
  call void (ptr, i32, ptr, ...) @av_log(ptr noundef %48, i32 noundef 16, ptr noundef @.str.24, ptr noundef %51, ptr noundef %58, ptr noundef %63)
  store i32 -22, ptr %8, align 4
  store i32 1, ptr %18, align 4
  br label %159

64:                                               ; preds = %41, %38
  %65 = load ptr, ptr %16, align 8, !tbaa !8
  %66 = getelementptr inbounds nuw %struct.AVOption, ptr %65, i32 0, i32 7
  %67 = load i32, ptr %66, align 8, !tbaa !26
  %68 = and i32 %67, 32768
  %69 = icmp ne i32 %68, 0
  br i1 %69, label %123, label %70

70:                                               ; preds = %64
  call void @llvm.lifetime.start.p0(i64 8, ptr %19) #11
  store ptr null, ptr %19, align 8, !tbaa !30
  call void @llvm.lifetime.start.p0(i64 8, ptr %20) #11
  %71 = load ptr, ptr %17, align 8, !tbaa !4
  %72 = load ptr, ptr %71, align 8, !tbaa !10
  store ptr %72, ptr %20, align 8, !tbaa !10
  %73 = load ptr, ptr %20, align 8, !tbaa !10
  %74 = getelementptr inbounds nuw %struct.AVClass, ptr %73, i32 0, i32 11
  %75 = load i32, ptr %74, align 8, !tbaa !32
  %76 = icmp ne i32 %75, 0
  br i1 %76, label %77, label %84

77:                                               ; preds = %70
  %78 = load ptr, ptr %17, align 8, !tbaa !4
  %79 = load ptr, ptr %20, align 8, !tbaa !10
  %80 = getelementptr inbounds nuw %struct.AVClass, ptr %79, i32 0, i32 11
  %81 = load i32, ptr %80, align 8, !tbaa !32
  %82 = sext i32 %81 to i64
  %83 = getelementptr inbounds i8, ptr %78, i64 %82
  store ptr %83, ptr %19, align 8, !tbaa !30
  br label %84

84:                                               ; preds = %77, %70
  %85 = load ptr, ptr %19, align 8, !tbaa !30
  %86 = icmp ne ptr %85, null
  br i1 %86, label %106, label %87

87:                                               ; preds = %84
  %88 = load ptr, ptr %9, align 8, !tbaa !4
  %89 = load ptr, ptr %17, align 8, !tbaa !4
  %90 = icmp ne ptr %88, %89
  br i1 %90, label %91, label %106

91:                                               ; preds = %87
  %92 = load ptr, ptr %9, align 8, !tbaa !4
  %93 = load ptr, ptr %92, align 8, !tbaa !10
  store ptr %93, ptr %20, align 8, !tbaa !10
  %94 = load ptr, ptr %20, align 8, !tbaa !10
  %95 = getelementptr inbounds nuw %struct.AVClass, ptr %94, i32 0, i32 11
  %96 = load i32, ptr %95, align 8, !tbaa !32
  %97 = icmp ne i32 %96, 0
  br i1 %97, label %98, label %105

98:                                               ; preds = %91
  %99 = load ptr, ptr %9, align 8, !tbaa !4
  %100 = load ptr, ptr %20, align 8, !tbaa !10
  %101 = getelementptr inbounds nuw %struct.AVClass, ptr %100, i32 0, i32 11
  %102 = load i32, ptr %101, align 8, !tbaa !32
  %103 = sext i32 %102 to i64
  %104 = getelementptr inbounds i8, ptr %99, i64 %103
  store ptr %104, ptr %19, align 8, !tbaa !30
  br label %105

105:                                              ; preds = %98, %91
  br label %106

106:                                              ; preds = %105, %87, %84
  %107 = load ptr, ptr %19, align 8, !tbaa !30
  %108 = icmp ne ptr %107, null
  br i1 %108, label %109, label %119

109:                                              ; preds = %106
  %110 = load ptr, ptr %19, align 8, !tbaa !30
  %111 = load i32, ptr %110, align 4, !tbaa !20
  %112 = and i32 %111, 1
  %113 = icmp ne i32 %112, 0
  br i1 %113, label %114, label %119

114:                                              ; preds = %109
  %115 = load ptr, ptr %9, align 8, !tbaa !4
  %116 = load ptr, ptr %16, align 8, !tbaa !8
  %117 = getelementptr inbounds nuw %struct.AVOption, ptr %116, i32 0, i32 0
  %118 = load ptr, ptr %117, align 8, !tbaa !16
  call void (ptr, i32, ptr, ...) @av_log(ptr noundef %115, i32 noundef 16, ptr noundef @.str.25, ptr noundef %118)
  store i32 -22, ptr %8, align 4
  store i32 1, ptr %18, align 4
  br label %120

119:                                              ; preds = %109, %106
  store i32 0, ptr %18, align 4
  br label %120

120:                                              ; preds = %119, %114
  call void @llvm.lifetime.end.p0(i64 8, ptr %20) #11
  call void @llvm.lifetime.end.p0(i64 8, ptr %19) #11
  %121 = load i32, ptr %18, align 4
  switch i32 %121, label %159 [
    i32 0, label %122
  ]

122:                                              ; preds = %120
  br label %123

123:                                              ; preds = %122, %64
  %124 = load ptr, ptr %16, align 8, !tbaa !8
  %125 = getelementptr inbounds nuw %struct.AVOption, ptr %124, i32 0, i32 7
  %126 = load i32, ptr %125, align 8, !tbaa !26
  %127 = and i32 %126, 131072
  %128 = icmp ne i32 %127, 0
  br i1 %128, label %129, label %135

129:                                              ; preds = %123
  %130 = load ptr, ptr %9, align 8, !tbaa !4
  %131 = load ptr, ptr %10, align 8, !tbaa !19
  %132 = load ptr, ptr %16, align 8, !tbaa !8
  %133 = getelementptr inbounds nuw %struct.AVOption, ptr %132, i32 0, i32 1
  %134 = load ptr, ptr %133, align 8, !tbaa !33
  call void (ptr, i32, ptr, ...) @av_log(ptr noundef %130, i32 noundef 24, ptr noundef @.str.3, ptr noundef %131, ptr noundef %134)
  br label %135

135:                                              ; preds = %129, %123
  %136 = load ptr, ptr %14, align 8, !tbaa !24
  %137 = icmp ne ptr %136, null
  br i1 %137, label %138, label %141

138:                                              ; preds = %135
  %139 = load ptr, ptr %16, align 8, !tbaa !8
  %140 = load ptr, ptr %14, align 8, !tbaa !24
  store ptr %139, ptr %140, align 8, !tbaa !8
  br label %141

141:                                              ; preds = %138, %135
  %142 = load ptr, ptr %13, align 8, !tbaa !22
  %143 = icmp ne ptr %142, null
  br i1 %143, label %144, label %147

144:                                              ; preds = %141
  %145 = load ptr, ptr %17, align 8, !tbaa !4
  %146 = load ptr, ptr %13, align 8, !tbaa !22
  store ptr %145, ptr %146, align 8, !tbaa !4
  br label %147

147:                                              ; preds = %144, %141
  %148 = load ptr, ptr %15, align 8, !tbaa !22
  %149 = icmp ne ptr %148, null
  br i1 %149, label %150, label %158

150:                                              ; preds = %147
  %151 = load ptr, ptr %17, align 8, !tbaa !4
  %152 = load ptr, ptr %16, align 8, !tbaa !8
  %153 = getelementptr inbounds nuw %struct.AVOption, ptr %152, i32 0, i32 2
  %154 = load i32, ptr %153, align 8, !tbaa !34
  %155 = sext i32 %154 to i64
  %156 = getelementptr inbounds i8, ptr %151, i64 %155
  %157 = load ptr, ptr %15, align 8, !tbaa !22
  store ptr %156, ptr %157, align 8, !tbaa !4
  br label %158

158:                                              ; preds = %150, %147
  store i32 0, ptr %8, align 4
  store i32 1, ptr %18, align 4
  br label %159

159:                                              ; preds = %158, %120, %47, %37, %30
  call void @llvm.lifetime.end.p0(i64 8, ptr %17) #11
  call void @llvm.lifetime.end.p0(i64 8, ptr %16) #11
  %160 = load i32, ptr %8, align 4
  ret i32 %160
}