; Function Attrs: nounwind uwtable
define internal fastcc range(i32 -1414549496, 1) i32 @opt_set_init(ptr noundef %0, ptr noundef %1, i32 noundef %2, i32 noundef range(i32 0, 20) %3, ptr noundef writeonly captures(address_is_null) %4, ptr noundef writeonly captures(address_is_null) %5, ptr noundef nonnull writeonly captures(none) %6) unnamed_addr #2 {
  %8 = alloca ptr, align 8
  call void @llvm.lifetime.start.p0(i64 8, ptr nonnull %8) #18
  %9 = call ptr @av_opt_find2(ptr noundef %0, ptr noundef %1, ptr noundef null, i32 noundef 0, i32 noundef %2, ptr noundef nonnull %8)
  %10 = icmp ne ptr %9, null
  %11 = load ptr, ptr %8, align 8
  %12 = icmp ne ptr %11, null
  %or.cond = select i1 %10, i1 %12, i1 false
  br i1 %or.cond, label %13, label %62

13:                                               ; preds = %7
  %14 = getelementptr inbounds nuw i8, ptr %9, i64 48
  %15 = load i32, ptr %14, align 8, !tbaa !21
  %16 = and i32 %15, 128
  %.not = icmp eq i32 %16, 0
  br i1 %.not, label %17, label %62

17:                                               ; preds = %13
  %.not51 = icmp eq i32 %3, 0
  br i1 %.not51, label %29, label %18

18:                                               ; preds = %17
  %19 = getelementptr inbounds nuw i8, ptr %9, i64 20
  %20 = load i32, ptr %19, align 4, !tbaa !18
  %.not52 = icmp eq i32 %20, %3
  br i1 %.not52, label %29, label %21

21:                                               ; preds = %18
  %22 = load ptr, ptr %9, align 8, !tbaa !14
  %23 = zext i32 %20 to i64
  %24 = getelementptr inbounds nuw [21 x %struct.anon], ptr @opt_type_desc, i64 0, i64 %23, i32 1
  %25 = load ptr, ptr %24, align 8, !tbaa !22
  %26 = zext nneg i32 %3 to i64
  %27 = getelementptr inbounds nuw [21 x %struct.anon], ptr @opt_type_desc, i64 0, i64 %26, i32 1
  %28 = load ptr, ptr %27, align 8, !tbaa !22
  call void (ptr, i32, ptr, ...) @av_log(ptr noundef %0, i32 noundef 16, ptr noundef nonnull @.str.24, ptr noundef %22, ptr noundef %25, ptr noundef %28) #18
  br label %62

29:                                               ; preds = %18, %17
  %30 = and i32 %15, 32768
  %.not53 = icmp eq i32 %30, 0
  br i1 %.not53, label %31, label %.thread

31:                                               ; preds = %29
  %32 = load ptr, ptr %11, align 8, !tbaa !4
  %33 = getelementptr inbounds nuw i8, ptr %32, i64 72
  %34 = load i32, ptr %33, align 8, !tbaa !25
  %.not54 = icmp eq i32 %34, 0
  %35 = sext i32 %34 to i64
  %36 = getelementptr inbounds i8, ptr %11, i64 %35
  br i1 %.not54, label %37, label %45

37:                                               ; preds = %31
  %.not56 = icmp eq ptr %0, %11
  br i1 %.not56, label %.thread, label %38

38:                                               ; preds = %37
  %39 = load ptr, ptr %0, align 8, !tbaa !4
  %40 = getelementptr inbounds nuw i8, ptr %39, i64 72
  %41 = load i32, ptr %40, align 8, !tbaa !25
  %.not57 = icmp eq i32 %41, 0
  br i1 %.not57, label %.thread, label %42

42:                                               ; preds = %38
  %43 = sext i32 %41 to i64
  %44 = getelementptr inbounds i8, ptr %0, i64 %43
  br label %45

45:                                               ; preds = %31, %42
  %.1 = phi ptr [ %36, %31 ], [ %44, %42 ]
  %46 = load i32, ptr %.1, align 4, !tbaa !26
  %47 = and i32 %46, 1
  %.not59 = icmp eq i32 %47, 0
  br i1 %.not59, label %.thread, label %.critedge

.critedge:                                        ; preds = %45
  %48 = load ptr, ptr %9, align 8, !tbaa !14
  call void (ptr, i32, ptr, ...) @av_log(ptr noundef %0, i32 noundef 16, ptr noundef nonnull @.str.25, ptr noundef %48) #18
  br label %62

.thread:                                          ; preds = %37, %38, %45, %29
  %49 = and i32 %15, 131072
  %.not60 = icmp eq i32 %49, 0
  br i1 %.not60, label %53, label %50

50:                                               ; preds = %.thread
  %51 = getelementptr inbounds nuw i8, ptr %9, i64 8
  %52 = load ptr, ptr %51, align 8, !tbaa !27
  call void (ptr, i32, ptr, ...) @av_log(ptr noundef %0, i32 noundef 24, ptr noundef nonnull @.str.3, ptr noundef %1, ptr noundef %52) #18
  br label %53

53:                                               ; preds = %50, %.thread
  %.not61 = icmp eq ptr %5, null
  br i1 %.not61, label %55, label %54

54:                                               ; preds = %53
  store ptr %9, ptr %5, align 8, !tbaa !17
  br label %55

55:                                               ; preds = %54, %53
  %.not62 = icmp eq ptr %4, null
  br i1 %.not62, label %57, label %56

56:                                               ; preds = %55
  store ptr %11, ptr %4, align 8, !tbaa !19
  br label %57

57:                                               ; preds = %55, %56
  %58 = getelementptr inbounds nuw i8, ptr %9, i64 16
  %59 = load i32, ptr %58, align 8, !tbaa !28
  %60 = sext i32 %59 to i64
  %61 = getelementptr inbounds i8, ptr %11, i64 %60
  store ptr %61, ptr %6, align 8, !tbaa !19
  br label %62

62:                                               ; preds = %.critedge, %13, %7, %57, %21
  %.040 = phi i32 [ -22, %21 ], [ 0, %57 ], [ -1414549496, %7 ], [ -22, %13 ], [ -22, %.critedge ]
  call void @llvm.lifetime.end.p0(i64 8, ptr nonnull %8) #18
  ret i32 %.040
}